target datalayout = "e-m:e-p270:32:32-p271:32:32-p272:64:64-i64:64-i128:128-f80:128-n8:16:32:64-S128"
target triple = "x86_64-pc-linux-gnu"

%struct.expert_field = type { i32, i32 }

@hf_h248_transactionId64 = internal global i32 0, align 4
@hf_h248_transactionId = internal global i32 0, align 4
@ei_h248_transactionId64 = internal global %struct.expert_field zeroinitializer, align 4

; Function Attrs: nounwind uwtable
define internal i32 @dissect_h248_trx_id(i1 noundef zeroext %0, ptr noundef %1, ptr noundef %2, ptr noundef %3, i32 noundef %4, ptr noundef %5) #0 {
  %7 = alloca i8, align 1
  %8 = alloca ptr, align 8
  %9 = alloca ptr, align 8
  %10 = alloca ptr, align 8
  %11 = alloca i32, align 4
  %12 = alloca ptr, align 8
  %13 = alloca i64, align 8
  %14 = alloca i8, align 1
  %15 = alloca i8, align 1
  %16 = alloca i32, align 4
  %17 = alloca i32, align 4
  %18 = alloca i32, align 4
  %19 = alloca ptr, align 8
  %20 = zext i1 %0 to i8
  store i8 %20, ptr %7, align 1
  store ptr %1, ptr %8, align 8
  store ptr %2, ptr %9, align 8
  store ptr %3, ptr %10, align 8
  store i32 %4, ptr %11, align 4
  store ptr %5, ptr %12, align 8
  store i64 0, ptr %13, align 8
  %21 = load i8, ptr %7, align 1
  %22 = trunc i8 %21 to i1
  br i1 %22, label %34, label %23

23:                                               ; preds = %6
  %24 = load ptr, ptr %8, align 8
  %25 = load ptr, ptr %9, align 8
  %26 = load ptr, ptr %10, align 8
  %27 = load i32, ptr %11, align 4
  %28 = call i32 @dissect_ber_identifier(ptr noundef %24, ptr noundef %25, ptr noundef %26, i32 noundef %27, ptr noundef %14, ptr noundef %15, ptr noundef %16)
  store i32 %28, ptr %11, align 4
  %29 = load ptr, ptr %8, align 8
  %30 = load ptr, ptr %9, align 8
  %31 = load ptr, ptr %10, align 8
  %32 = load i32, ptr %11, align 4
  %33 = call i32 @dissect_ber_length(ptr noundef %29, ptr noundef %30, ptr noundef %31, i32 noundef %32, ptr noundef %17, ptr noundef null)
  store i32 %33, ptr %11, align 4
  br label %38

34:                                               ; preds = %6
  %35 = load ptr, ptr %10, align 8
  %36 = load i32, ptr %11, align 4
  %37 = call i32 @tvb_reported_length_remaining(ptr noundef %35, i32 noundef %36)
  store i32 %37, ptr %17, align 4
  br label %38

38:                                               ; preds = %34, %23
  %39 = load i32, ptr %17, align 4
  %40 = icmp ugt i32 %39, 8
  br i1 %40, label %44, label %41

41:                                               ; preds = %38
  %42 = load i32, ptr %17, align 4
  %43 = icmp ult i32 %42, 1
  br i1 %43, label %44, label %45

44:                                               ; preds = %41, %38
  call void @except_throw(i64 noundef 1, i64 noundef 1, ptr noundef null) #7
  unreachable

45:                                               ; preds = %41
  store i32 1, ptr %18, align 4
  br label %46

46:                                               ; preds = %60, %45
  %47 = load i32, ptr %18, align 4
  %48 = load i32, ptr %17, align 4
  %49 = icmp ule i32 %47, %48
  br i1 %49, label %50, label %63

50:                                               ; preds = %46
  %51 = load i64, ptr %13, align 8
  %52 = shl i64 %51, 8
  %53 = load ptr, ptr %10, align 8
  %54 = load i32, ptr %11, align 4
  %55 = call zeroext i8 @tvb_get_guint8(ptr noundef %53, i32 noundef %54)
  %56 = zext i8 %55 to i64
  %57 = or i64 %52, %56
  store i64 %57, ptr %13, align 8
  %58 = load i32, ptr %11, align 4
  %59 = add i32 %58, 1
  store i32 %59, ptr %11, align 4
  br label %60

60:                                               ; preds = %50
  %61 = load i32, ptr %18, align 4
  %62 = add i32 %61, 1
  store i32 %62, ptr %18, align 4
  br label %46, !llvm.loop !27

63:                                               ; preds = %46
  %64 = load i64, ptr %13, align 8
  %65 = icmp ugt i64 %64, 4294967295
  br i1 %65, label %66, label %80

66:                                               ; preds = %63
  %67 = load ptr, ptr %9, align 8
  %68 = load i32, ptr @hf_h248_transactionId64, align 4
  %69 = load ptr, ptr %10, align 8
  %70 = load i32, ptr %11, align 4
  %71 = load i32, ptr %17, align 4
  %72 = sub i32 %70, %71
  %73 = load i32, ptr %17, align 4
  %74 = load i64, ptr %13, align 8
  %75 = call ptr @proto_tree_add_uint64(ptr noundef %67, i32 noundef %68, ptr noundef %69, i32 noundef %72, i32 noundef %73, i64 noundef %74)
  store ptr %75, ptr %19, align 8
  %76 = load ptr, ptr %8, align 8
  %77 = load ptr, ptr %19, align 8
  %78 = call ptr @expert_add_info(ptr noundef %76, ptr noundef %77, ptr noundef @ei_h248_transactionId64)
  %79 = load ptr, ptr %12, align 8
  store i32 0, ptr %79, align 4
  br label %94

80:                                               ; preds = %63
  %81 = load ptr, ptr %9, align 8
  %82 = load i32, ptr @hf_h248_transactionId, align 4
  %83 = load ptr, ptr %10, align 8
  %84 = load i32, ptr %11, align 4
  %85 = load i32, ptr %17, align 4
  %86 = sub i32 %84, %85
  %87 = load i32, ptr %17, align 4
  %88 = load i64, ptr %13, align 8
  %89 = trunc i64 %88 to i32
  %90 = call ptr @proto_tree_add_uint(ptr noundef %81, i32 noundef %82, ptr noundef %83, i32 noundef %86, i32 noundef %87, i32 noundef %89)
  %91 = load i64, ptr %13, align 8
  %92 = trunc i64 %91 to i32
  %93 = load ptr, ptr %12, align 8
  store i32 %92, ptr %93, align 4
  br label %94

94:                                               ; preds = %80, %66
  br label %95

95:                                               ; preds = %94
  %96 = load i32, ptr %11, align 4
  ret i32 %96
}