; Function Attrs: nounwind uwtable
define internal fastcc noundef i32 @dissect_h248_trx_id(i1 noundef zeroext %0, ptr noundef %1, ptr noundef %2, ptr noundef %3, i32 noundef %4, ptr noundef nonnull writeonly captures(none) %5) unnamed_addr #0 {
  %7 = alloca i8, align 1
  %8 = alloca i8, align 1
  %9 = alloca i32, align 4
  %10 = alloca i32, align 4
  br i1 %0, label %14, label %11

11:                                               ; preds = %6
  %12 = call i32 @dissect_ber_identifier(ptr noundef %1, ptr noundef %2, ptr noundef %3, i32 noundef %4, ptr noundef nonnull %7, ptr noundef nonnull %8, ptr noundef nonnull %9) #7
  %13 = call i32 @dissect_ber_length(ptr noundef %1, ptr noundef %2, ptr noundef %3, i32 noundef %12, ptr noundef nonnull %10, ptr noundef null) #7
  %.pre = load i32, ptr %10, align 4
  br label %16

14:                                               ; preds = %6
  %15 = tail call i32 @tvb_reported_length_remaining(ptr noundef %3, i32 noundef %4) #7
  store i32 %15, ptr %10, align 4
  br label %16

16:                                               ; preds = %14, %11
  %17 = phi i32 [ %15, %14 ], [ %.pre, %11 ]
  %.0 = phi i32 [ %4, %14 ], [ %13, %11 ]
  %18 = add i32 %17, -9
  %or.cond = icmp ult i32 %18, -8
  br i1 %or.cond, label %19, label %.lr.ph

19:                                               ; preds = %16
  call void @except_throw(i64 noundef 1, i64 noundef 1, ptr noundef null) #9
  unreachable

.lr.ph:                                           ; preds = %16, %.lr.ph
  %.138 = phi i32 [ %24, %.lr.ph ], [ %.0, %16 ]
  %.03237 = phi i32 [ %25, %.lr.ph ], [ 1, %16 ]
  %.03336 = phi i64 [ %23, %.lr.ph ], [ 0, %16 ]
  %20 = shl i64 %.03336, 8
  %21 = call zeroext i8 @tvb_get_guint8(ptr noundef %3, i32 noundef %.138) #7
  %22 = zext i8 %21 to i64
  %23 = or disjoint i64 %20, %22
  %24 = add i32 %.138, 1
  %25 = add i32 %.03237, 1
  %26 = load i32, ptr %10, align 4
  %.not = icmp ugt i32 %25, %26
  br i1 %.not, label %._crit_edge, label %.lr.ph, !llvm.loop !27

._crit_edge:                                      ; preds = %.lr.ph
  %27 = icmp ugt i64 %20, 4294967295
  %28 = sub i32 %24, %26
  br i1 %27, label %29, label %33

29:                                               ; preds = %._crit_edge
  %30 = load i32, ptr @hf_h248_transactionId64, align 4
  %31 = call ptr @proto_tree_add_uint64(ptr noundef %2, i32 noundef %30, ptr noundef %3, i32 noundef %28, i32 noundef %26, i64 noundef %23) #7
  %32 = call ptr @expert_add_info(ptr noundef %1, ptr noundef %31, ptr noundef nonnull @ei_h248_transactionId64) #7
  br label %37

33:                                               ; preds = %._crit_edge
  %34 = load i32, ptr @hf_h248_transactionId, align 4
  %35 = trunc nuw i64 %23 to i32
  %36 = call ptr @proto_tree_add_uint(ptr noundef %2, i32 noundef %34, ptr noundef %3, i32 noundef %28, i32 noundef %26, i32 noundef %35) #7
  br label %37

37:                                               ; preds = %29, %33
  %storemerge = phi i32 [ %35, %33 ], [ 0, %29 ]
  store i32 %storemerge, ptr %5, align 4
  ret i32 %24
}